; ModuleID = '61/1539.c'
source_filename = "61/1539.c"
target datalayout = "e-m:e-p270:32:32-p271:32:32-p272:64:64-i64:64-f80:128-n8:16:32:64-S128"
target triple = "x86_64-pc-linux-gnu"

@.str = private unnamed_addr constant [3 x i8] c"%d\00", align 1
@.str.1 = private unnamed_addr constant [4 x i8] c"%d\0A\00", align 1

; Function Attrs: noinline nounwind uwtable
define dso_local i32 @main() #0 {
  %1 = alloca i32, align 4
  %2 = alloca i32, align 4
  %3 = alloca [999 x i32], align 16
  %4 = alloca i32, align 4
  store i32 0, i32* %1, align 4
  store i32 0, i32* %4, align 4
  %5 = call i32 (i8*, ...) @__isoc99_scanf(i8* getelementptr inbounds ([3 x i8], [3 x i8]* @.str, i64 0, i64 0), i32* %2)
  store i32 0, i32* %4, align 4
  br label %6

6:                                                ; preds = %15, %0
  %7 = load i32, i32* %4, align 4
  %8 = load i32, i32* %2, align 4
  %9 = icmp slt i32 %7, %8
  br i1 %9, label %10, label %18

10:                                               ; preds = %6
  %11 = load i32, i32* %4, align 4
  %12 = sext i32 %11 to i64
  %13 = getelementptr inbounds [999 x i32], [999 x i32]* %3, i64 0, i64 %12
  %14 = call i32 (i8*, ...) @__isoc99_scanf(i8* getelementptr inbounds ([3 x i8], [3 x i8]* @.str, i64 0, i64 0), i32* %13)
  br label %15

15:                                               ; preds = %10
  %16 = load i32, i32* %4, align 4
  %17 = add nsw i32 %16, 1
  store i32 %17, i32* %4, align 4
  br label %6

18:                                               ; preds = %6
  store i32 0, i32* %4, align 4
  store i32 0, i32* %4, align 4
  br label %19

19:                                               ; preds = %30, %18
  %20 = load i32, i32* %4, align 4
  %21 = load i32, i32* %2, align 4
  %22 = icmp slt i32 %20, %21
  br i1 %22, label %23, label %33

23:                                               ; preds = %19
  %24 = load i32, i32* %4, align 4
  %25 = sext i32 %24 to i64
  %26 = getelementptr inbounds [999 x i32], [999 x i32]* %3, i64 0, i64 %25
  %27 = load i32, i32* %26, align 4
  %28 = call i32 @F(i32 %27)
  %29 = call i32 (i8*, ...) @printf(i8* getelementptr inbounds ([4 x i8], [4 x i8]* @.str.1, i64 0, i64 0), i32 %28)
  br label %30

30:                                               ; preds = %23
  %31 = load i32, i32* %4, align 4
  %32 = add nsw i32 %31, 1
  store i32 %32, i32* %4, align 4
  br label %19

33:                                               ; preds = %19
  ret i32 0
}

declare dso_local i32 @__isoc99_scanf(i8*, ...) #1

declare dso_local i32 @printf(i8*, ...) #1

; Function Attrs: noinline nounwind uwtable
define dso_local i32 @F(i32 %0) #0 {
  %2 = alloca i32, align 4
  %3 = alloca i32, align 4
  %4 = alloca [999 x i32], align 16
  %5 = alloca i32, align 4
  store i32 %0, i32* %3, align 4
  store i32 1, i32* %5, align 4
  %6 = getelementptr inbounds [999 x i32], [999 x i32]* %4, i64 0, i64 1
  store i32 1, i32* %6, align 4
  %7 = getelementptr inbounds [999 x i32], [999 x i32]* %4, i64 0, i64 2
  store i32 1, i32* %7, align 8
  %8 = load i32, i32* %3, align 4
  %9 = icmp eq i32 %8, 1
  br i1 %9, label %10, label %11

10:                                               ; preds = %1
  store i32 1, i32* %2, align 4
  br label %44

11:                                               ; preds = %1
  %12 = load i32, i32* %3, align 4
  %13 = icmp eq i32 %12, 2
  br i1 %13, label %14, label %15

14:                                               ; preds = %11
  store i32 1, i32* %2, align 4
  br label %44

15:                                               ; preds = %11
  store i32 3, i32* %5, align 4
  br label %16

16:                                               ; preds = %35, %15
  %17 = load i32, i32* %5, align 4
  %18 = load i32, i32* %3, align 4
  %19 = icmp sle i32 %17, %18
  br i1 %19, label %20, label %38

20:                                               ; preds = %16
  %21 = load i32, i32* %5, align 4
  %22 = sub nsw i32 %21, 1
  %23 = sext i32 %22 to i64
  %24 = getelementptr inbounds [999 x i32], [999 x i32]* %4, i64 0, i64 %23
  %25 = load i32, i32* %24, align 4
  %26 = load i32, i32* %5, align 4
  %27 = sub nsw i32 %26, 2
  %28 = sext i32 %27 to i64
  %29 = getelementptr inbounds [999 x i32], [999 x i32]* %4, i64 0, i64 %28
  %30 = load i32, i32* %29, align 4
  %31 = add nsw i32 %25, %30
  %32 = load i32, i32* %5, align 4
  %33 = sext i32 %32 to i64
  %34 = getelementptr inbounds [999 x i32], [999 x i32]* %4, i64 0, i64 %33
  store i32 %31, i32* %34, align 4
  br label %35

35:                                               ; preds = %20
  %36 = load i32, i32* %5, align 4
  %37 = add nsw i32 %36, 1
  store i32 %37, i32* %5, align 4
  br label %16

38:                                               ; preds = %16
  br label %39

39:                                               ; preds = %38
  %40 = load i32, i32* %3, align 4
  %41 = sext i32 %40 to i64
  %42 = getelementptr inbounds [999 x i32], [999 x i32]* %4, i64 0, i64 %41
  %43 = load i32, i32* %42, align 4
  store i32 %43, i32* %2, align 4
  br label %44

44:                                               ; preds = %39, %14, %10
  %45 = load i32, i32* %2, align 4
  ret i32 %45
}


!llvm.module.flags = !{!0}
!llvm.ident = !{!1}

!0 = !{i32 1, !"wchar_size", i32 4}
!1 = !{!"clang version 10.0.0-4ubuntu1 "}
